target datalayout = "e-m:e-p270:32:32-p271:32:32-p272:64:64-i64:64-i128:128-f80:128-n8:16:32:64-S128"
target triple = "x86_64-pc-linux-gnu"

%struct.expert_field = type { i32, i32 }

@hf_ansi_801_ref_bit_num = internal global i32 0, align 4
@hf_ansi_801_num_dr_p = internal global i32 0, align 4
@hf_ansi_801_dr_size = internal global i32 0, align 4
@hf_ansi_801_part_num = internal global i32 0, align 4
@hf_ansi_801_total_parts = internal global i32 0, align 4
@hf_ansi_801_data_records = internal global i32 0, align 4
@ei_ansi_801_extraneous_data = internal global %struct.expert_field zeroinitializer, align 4
@ei_ansi_801_short_data = internal global %struct.expert_field zeroinitializer, align 4

; Function Attrs: null_pointer_is_valid sspstrong uwtable
define internal void @for_pr_gps_sense_ass(ptr noundef %0, ptr noundef %1, ptr noundef %2, i32 noundef %3, i32 noundef %4) #0 {
  %6 = alloca ptr, align 8
  %7 = alloca ptr, align 8
  %8 = alloca ptr, align 8
  %9 = alloca i32, align 4
  %10 = alloca i32, align 4
  %11 = alloca i32, align 4
  %12 = alloca i32, align 4
  store ptr %0, ptr %6, align 8
  store ptr %1, ptr %7, align 8
  store ptr %2, ptr %8, align 8
  store i32 %3, ptr %9, align 4
  store i32 %4, ptr %10, align 4
  call void @llvm.lifetime.start.p0(i64 4, ptr %11) #6
  %13 = load i32, ptr %10, align 4
  store i32 %13, ptr %11, align 4
  %14 = load i32, ptr %9, align 4
  %15 = icmp ult i32 %14, 4
  br i1 %15, label %16, label %23

16:                                               ; preds = %5
  %17 = load ptr, ptr %8, align 8
  %18 = load ptr, ptr %7, align 8
  %19 = load ptr, ptr %6, align 8
  %20 = load i32, ptr %10, align 4
  %21 = load i32, ptr %9, align 4
  %22 = call ptr @proto_tree_add_expert(ptr noundef %17, ptr noundef %18, ptr noundef @ei_ansi_801_short_data, ptr noundef %19, i32 noundef %20, i32 noundef %21)
  store i32 1, ptr %12, align 4
  br label %77

23:                                               ; preds = %5
  %24 = load ptr, ptr %8, align 8
  %25 = load i32, ptr @hf_ansi_801_ref_bit_num, align 4
  %26 = load ptr, ptr %6, align 8
  %27 = load i32, ptr %10, align 4
  %28 = call ptr @proto_tree_add_item(ptr noundef %24, i32 noundef %25, ptr noundef %26, i32 noundef %27, i32 noundef 2, i32 noundef 0)
  %29 = load ptr, ptr %8, align 8
  %30 = load i32, ptr @hf_ansi_801_num_dr_p, align 4
  %31 = load ptr, ptr %6, align 8
  %32 = load i32, ptr %10, align 4
  %33 = call ptr @proto_tree_add_item(ptr noundef %29, i32 noundef %30, ptr noundef %31, i32 noundef %32, i32 noundef 2, i32 noundef 0)
  %34 = load i32, ptr %10, align 4
  %35 = add i32 %34, 2
  store i32 %35, ptr %10, align 4
  %36 = load ptr, ptr %8, align 8
  %37 = load i32, ptr @hf_ansi_801_dr_size, align 4
  %38 = load ptr, ptr %6, align 8
  %39 = load i32, ptr %10, align 4
  %40 = call ptr @proto_tree_add_item(ptr noundef %36, i32 noundef %37, ptr noundef %38, i32 noundef %39, i32 noundef 3, i32 noundef 0)
  %41 = load i32, ptr %10, align 4
  %42 = add i32 %41, 1
  store i32 %42, ptr %10, align 4
  %43 = load ptr, ptr %8, align 8
  %44 = load i32, ptr @hf_ansi_801_part_num, align 4
  %45 = load ptr, ptr %6, align 8
  %46 = load i32, ptr %10, align 4
  %47 = call ptr @proto_tree_add_item(ptr noundef %43, i32 noundef %44, ptr noundef %45, i32 noundef %46, i32 noundef 2, i32 noundef 0)
  %48 = load ptr, ptr %8, align 8
  %49 = load i32, ptr @hf_ansi_801_total_parts, align 4
  %50 = load ptr, ptr %6, align 8
  %51 = load i32, ptr %10, align 4
  %52 = call ptr @proto_tree_add_item(ptr noundef %48, i32 noundef %49, ptr noundef %50, i32 noundef %51, i32 noundef 2, i32 noundef 0)
  %53 = load ptr, ptr %8, align 8
  %54 = load i32, ptr @hf_ansi_801_data_records, align 4
  %55 = load ptr, ptr %6, align 8
  %56 = load i32, ptr %10, align 4
  %57 = call ptr @proto_tree_add_item(ptr noundef %53, i32 noundef %54, ptr noundef %55, i32 noundef %56, i32 noundef 2, i32 noundef 0)
  %58 = load i32, ptr %10, align 4
  %59 = add i32 %58, 1
  store i32 %59, ptr %10, align 4
  %60 = load i32, ptr %9, align 4
  %61 = load i32, ptr %10, align 4
  %62 = load i32, ptr %11, align 4
  %63 = sub i32 %61, %62
  %64 = icmp ugt i32 %60, %63
  br i1 %64, label %65, label %76

65:                                               ; preds = %23
  %66 = load ptr, ptr %8, align 8
  %67 = load ptr, ptr %7, align 8
  %68 = load ptr, ptr %6, align 8
  %69 = load i32, ptr %10, align 4
  %70 = load i32, ptr %9, align 4
  %71 = load i32, ptr %10, align 4
  %72 = load i32, ptr %11, align 4
  %73 = sub i32 %71, %72
  %74 = sub i32 %70, %73
  %75 = call ptr @proto_tree_add_expert(ptr noundef %66, ptr noundef %67, ptr noundef @ei_ansi_801_extraneous_data, ptr noundef %68, i32 noundef %69, i32 noundef %74)
  br label %76

76:                                               ; preds = %65, %23
  store i32 0, ptr %12, align 4
  br label %77

77:                                               ; preds = %76, %16
  call void @llvm.lifetime.end.p0(i64 4, ptr %11) #6
  %78 = load i32, ptr %12, align 4
  switch i32 %78, label %80 [
    i32 0, label %79
    i32 1, label %79
  ]

79:                                               ; preds = %77, %77
  ret void

80:                                               ; preds = %77
  unreachable
}