; Function Attrs: null_pointer_is_valid sspstrong uwtable
define internal void @for_pr_gps_sense_ass(ptr noundef %0, ptr noundef %1, ptr noundef %2, i32 noundef %3, i32 noundef %4) #0 {
  %6 = icmp ult i32 %3, 4
  br i1 %6, label %7, label %9

7:                                                ; preds = %5
  %8 = tail call ptr @proto_tree_add_expert(ptr noundef %2, ptr noundef %1, ptr noundef nonnull @ei_ansi_801_short_data, ptr noundef %0, i32 noundef %4, i32 noundef %3)
  br label %28

9:                                                ; preds = %5
  %10 = load i32, ptr @hf_ansi_801_ref_bit_num, align 4
  %11 = tail call ptr @proto_tree_add_item(ptr noundef %2, i32 noundef %10, ptr noundef %0, i32 noundef %4, i32 noundef 2, i32 noundef 0)
  %12 = load i32, ptr @hf_ansi_801_num_dr_p, align 4
  %13 = tail call ptr @proto_tree_add_item(ptr noundef %2, i32 noundef %12, ptr noundef %0, i32 noundef %4, i32 noundef 2, i32 noundef 0)
  %14 = add i32 %4, 2
  %15 = load i32, ptr @hf_ansi_801_dr_size, align 4
  %16 = tail call ptr @proto_tree_add_item(ptr noundef %2, i32 noundef %15, ptr noundef %0, i32 noundef %14, i32 noundef 3, i32 noundef 0)
  %17 = add i32 %4, 3
  %18 = load i32, ptr @hf_ansi_801_part_num, align 4
  %19 = tail call ptr @proto_tree_add_item(ptr noundef %2, i32 noundef %18, ptr noundef %0, i32 noundef %17, i32 noundef 2, i32 noundef 0)
  %20 = load i32, ptr @hf_ansi_801_total_parts, align 4
  %21 = tail call ptr @proto_tree_add_item(ptr noundef %2, i32 noundef %20, ptr noundef %0, i32 noundef %17, i32 noundef 2, i32 noundef 0)
  %22 = load i32, ptr @hf_ansi_801_data_records, align 4
  %23 = tail call ptr @proto_tree_add_item(ptr noundef %2, i32 noundef %22, ptr noundef %0, i32 noundef %17, i32 noundef 2, i32 noundef 0)
  %.not = icmp eq i32 %3, 4
  br i1 %.not, label %28, label %24

24:                                               ; preds = %9
  %25 = add i32 %4, 4
  %26 = add i32 %3, -4
  %27 = tail call ptr @proto_tree_add_expert(ptr noundef %2, ptr noundef %1, ptr noundef nonnull @ei_ansi_801_extraneous_data, ptr noundef %0, i32 noundef %25, i32 noundef %26)
  br label %28

28:                                               ; preds = %9, %24, %7
  ret void
}